; Function Attrs: nounwind uwtable
define dso_local i64 @gtsquery_compress(ptr noundef readonly captures(none) %0) local_unnamed_addr #0 {
  %2 = getelementptr inbounds nuw i8, ptr %0, i64 32
  %3 = load i64, ptr %2, align 8
  %4 = inttoptr i64 %3 to ptr
  %5 = getelementptr inbounds nuw i8, ptr %4, i64 26
  %6 = load i8, ptr %5, align 2, !range !4, !noundef !5
  %7 = trunc nuw i8 %6 to i1
  br i1 %7, label %8, label %24

8:                                                ; preds = %1
  %9 = tail call ptr @palloc(i64 noundef 32) #7
  %10 = load i64, ptr %4, align 8
  %11 = inttoptr i64 %10 to ptr
  %12 = tail call i64 @makeTSQuerySign(ptr noundef %11) #7
  store i64 %12, ptr %9, align 8
  %13 = getelementptr inbounds nuw i8, ptr %4, i64 8
  %14 = load ptr, ptr %13, align 8
  %15 = getelementptr inbounds nuw i8, ptr %9, i64 8
  store ptr %14, ptr %15, align 8
  %16 = getelementptr inbounds nuw i8, ptr %4, i64 16
  %17 = load ptr, ptr %16, align 8
  %18 = getelementptr inbounds nuw i8, ptr %9, i64 16
  store ptr %17, ptr %18, align 8
  %19 = getelementptr inbounds nuw i8, ptr %4, i64 24
  %20 = load i16, ptr %19, align 8
  %21 = getelementptr inbounds nuw i8, ptr %9, i64 24
  store i16 %20, ptr %21, align 8
  %22 = getelementptr inbounds nuw i8, ptr %9, i64 26
  store i8 0, ptr %22, align 2
  %23 = ptrtoint ptr %9 to i64
  br label %24

24:                                               ; preds = %8, %1
  %.0 = phi i64 [ %23, %8 ], [ %3, %1 ]
  ret i64 %.0
}